target datalayout = "e-m:e-p270:32:32-p271:32:32-p272:64:64-i64:64-i128:128-f80:128-n8:16:32:64-S128"
target triple = "x86_64-pc-linux-gnu"

%struct.DdManager = type { %struct.DdNode, ptr, ptr, ptr, ptr, ptr, ptr, ptr, i32, i32, double, double, double, i32, i32, i32, i32, i32, i32, ptr, ptr, %struct.DdSubtable, i32, i32, i32, i32, i32, i32, i32, double, i32, i32, i32, ptr, i64, double, i32, ptr, ptr, ptr, ptr, ptr, ptr, ptr, i32, ptr, ptr, ptr, ptr, ptr, ptr, i32, i32, i32, double, i32, i32, i32, i32, double, double, i32, i32, i32, i32, i32, i32, i32, i32, i32, ptr, ptr, i32, i32, i32, i32, i32, i32, ptr, ptr, ptr, ptr, ptr, ptr, ptr, ptr, i32, i64, i64, i64, i32, i64, i64, double, double, double, double, double, double, i32, ptr, ptr, i64 }
%struct.DdNode = type { i32, i32, ptr, %union.anon, i64 }
%union.anon = type { %struct.DdChildren }
%struct.DdChildren = type { ptr, ptr }
%struct.DdSubtable = type { ptr, i32, i32, i32, i32, i32, i32, i32, i32, i32, i32, i32 }

; Function Attrs: nounwind uwtable
define void @Extra_bddPermuteArray(ptr noundef %0, ptr noundef %1, ptr noundef %2, i32 noundef %3, ptr noundef %4) #0 {
  %6 = alloca ptr, align 8
  %7 = alloca ptr, align 8
  %8 = alloca ptr, align 8
  %9 = alloca i32, align 4
  %10 = alloca ptr, align 8
  %11 = alloca ptr, align 8
  %12 = alloca i32, align 4
  %13 = alloca i32, align 4
  store ptr %0, ptr %6, align 8, !tbaa !3
  store ptr %1, ptr %7, align 8, !tbaa !56
  store ptr %2, ptr %8, align 8, !tbaa !56
  store i32 %3, ptr %9, align 4, !tbaa !37
  store ptr %4, ptr %10, align 8, !tbaa !10
  call void @llvm.lifetime.start.p0(i64 8, ptr %11) #10
  call void @llvm.lifetime.start.p0(i64 4, ptr %12) #10
  call void @llvm.lifetime.start.p0(i64 4, ptr %13) #10
  br label %14

14:                                               ; preds = %76, %5
  %15 = load ptr, ptr %6, align 8, !tbaa !3
  %16 = getelementptr inbounds nuw %struct.DdManager, ptr %15, i32 0, i32 55
  store i32 0, ptr %16, align 8, !tbaa !12
  %17 = load ptr, ptr %6, align 8, !tbaa !3
  %18 = call ptr @cuddHashTableInit(ptr noundef %17, i32 noundef 1, i32 noundef 2)
  store ptr %18, ptr %11, align 8, !tbaa !77
  store i32 0, ptr %12, align 4, !tbaa !37
  br label %19

19:                                               ; preds = %71, %14
  %20 = load i32, ptr %12, align 4, !tbaa !37
  %21 = load i32, ptr %9, align 4, !tbaa !37
  %22 = icmp slt i32 %20, %21
  br i1 %22, label %23, label %74

23:                                               ; preds = %19
  %24 = load ptr, ptr %6, align 8, !tbaa !3
  %25 = load ptr, ptr %11, align 8, !tbaa !77
  %26 = load ptr, ptr %7, align 8, !tbaa !56
  %27 = load i32, ptr %12, align 4, !tbaa !37
  %28 = sext i32 %27 to i64
  %29 = getelementptr inbounds ptr, ptr %26, i64 %28
  %30 = load ptr, ptr %29, align 8, !tbaa !8
  %31 = load ptr, ptr %10, align 8, !tbaa !10
  %32 = call ptr @cuddBddPermuteRecur(ptr noundef %24, ptr noundef %25, ptr noundef %30, ptr noundef %31)
  %33 = load ptr, ptr %8, align 8, !tbaa !56
  %34 = load i32, ptr %12, align 4, !tbaa !37
  %35 = sext i32 %34 to i64
  %36 = getelementptr inbounds ptr, ptr %33, i64 %35
  store ptr %32, ptr %36, align 8, !tbaa !8
  %37 = load ptr, ptr %8, align 8, !tbaa !56
  %38 = load i32, ptr %12, align 4, !tbaa !37
  %39 = sext i32 %38 to i64
  %40 = getelementptr inbounds ptr, ptr %37, i64 %39
  %41 = load ptr, ptr %40, align 8, !tbaa !8
  %42 = icmp eq ptr %41, null
  br i1 %42, label %43, label %59

43:                                               ; preds = %23
  store i32 0, ptr %13, align 4, !tbaa !37
  br label %44

44:                                               ; preds = %55, %43
  %45 = load i32, ptr %13, align 4, !tbaa !37
  %46 = load i32, ptr %12, align 4, !tbaa !37
  %47 = icmp slt i32 %45, %46
  br i1 %47, label %48, label %58

48:                                               ; preds = %44
  %49 = load ptr, ptr %6, align 8, !tbaa !3
  %50 = load ptr, ptr %8, align 8, !tbaa !56
  %51 = load i32, ptr %13, align 4, !tbaa !37
  %52 = sext i32 %51 to i64
  %53 = getelementptr inbounds ptr, ptr %50, i64 %52
  %54 = load ptr, ptr %53, align 8, !tbaa !8
  call void @Cudd_RecursiveDeref(ptr noundef %49, ptr noundef %54)
  br label %55

55:                                               ; preds = %48
  %56 = load i32, ptr %13, align 4, !tbaa !37
  %57 = add nsw i32 %56, 1
  store i32 %57, ptr %13, align 4, !tbaa !37
  br label %44, !llvm.loop !79

58:                                               ; preds = %44
  br label %74

59:                                               ; preds = %23
  %60 = load ptr, ptr %8, align 8, !tbaa !56
  %61 = load i32, ptr %12, align 4, !tbaa !37
  %62 = sext i32 %61 to i64
  %63 = getelementptr inbounds ptr, ptr %60, i64 %62
  %64 = load ptr, ptr %63, align 8, !tbaa !8
  %65 = ptrtoint ptr %64 to i64
  %66 = and i64 %65, -2
  %67 = inttoptr i64 %66 to ptr
  %68 = getelementptr inbounds nuw %struct.DdNode, ptr %67, i32 0, i32 1
  %69 = load i32, ptr %68, align 4, !tbaa !34
  %70 = add i32 %69, 1
  store i32 %70, ptr %68, align 4, !tbaa !34
  br label %71

71:                                               ; preds = %59
  %72 = load i32, ptr %12, align 4, !tbaa !37
  %73 = add nsw i32 %72, 1
  store i32 %73, ptr %12, align 4, !tbaa !37
  br label %19, !llvm.loop !80

74:                                               ; preds = %58, %19
  %75 = load ptr, ptr %11, align 8, !tbaa !77
  call void @cuddHashTableQuit(ptr noundef %75)
  br label %76

76:                                               ; preds = %74
  %77 = load ptr, ptr %6, align 8, !tbaa !3
  %78 = getelementptr inbounds nuw %struct.DdManager, ptr %77, i32 0, i32 55
  %79 = load i32, ptr %78, align 8, !tbaa !12
  %80 = icmp eq i32 %79, 1
  br i1 %80, label %14, label %81, !llvm.loop !81

81:                                               ; preds = %76
  call void @llvm.lifetime.end.p0(i64 4, ptr %13) #10
  call void @llvm.lifetime.end.p0(i64 4, ptr %12) #10
  call void @llvm.lifetime.end.p0(i64 8, ptr %11) #10
  ret void
}