; Function Attrs: nounwind uwtable
define void @Extra_bddPermuteArray(ptr noundef initializes((448, 452)) %0, ptr noundef readonly captures(none) %1, ptr noundef captures(none) %2, i32 noundef %3, ptr noundef %4) local_unnamed_addr #0 {
  %6 = getelementptr inbounds nuw i8, ptr %0, i64 448
  %7 = icmp sgt i32 %3, 0
  br i1 %7, label %.lr.ph.us.preheader, label %.loopexit25

.lr.ph.us.preheader:                              ; preds = %5
  %wide.trip.count = zext nneg i32 %3 to i64
  br label %.lr.ph.us

.lr.ph.us:                                        ; preds = %.lr.ph.us.preheader, %.loopexit.us
  store i32 0, ptr %6, align 8, !tbaa !3
  %8 = tail call ptr @cuddHashTableInit(ptr noundef %0, i32 noundef 1, i32 noundef 2) #19
  br label %9

9:                                                ; preds = %.lr.ph.us, %15
  %indvars.iv39 = phi i32 [ 0, %.lr.ph.us ], [ %indvars.iv.next40, %15 ]
  %indvars.iv = phi i64 [ 0, %.lr.ph.us ], [ %indvars.iv.next, %15 ]
  %10 = getelementptr inbounds nuw ptr, ptr %1, i64 %indvars.iv
  %11 = load ptr, ptr %10, align 8, !tbaa !25
  %12 = tail call fastcc ptr @cuddBddPermuteRecur(ptr noundef %0, ptr noundef %8, ptr noundef %11, ptr noundef %4)
  %13 = getelementptr inbounds nuw ptr, ptr %2, i64 %indvars.iv
  store ptr %12, ptr %13, align 8, !tbaa !25
  %14 = icmp eq ptr %12, null
  br i1 %14, label %.preheader.us, label %15

15:                                               ; preds = %9
  %16 = ptrtoint ptr %12 to i64
  %17 = and i64 %16, -2
  %18 = inttoptr i64 %17 to ptr
  %19 = getelementptr inbounds nuw i8, ptr %18, i64 4
  %20 = load i32, ptr %19, align 4, !tbaa !24
  %21 = add i32 %20, 1
  store i32 %21, ptr %19, align 4, !tbaa !24
  %indvars.iv.next = add nuw nsw i64 %indvars.iv, 1
  %exitcond.not = icmp eq i64 %indvars.iv.next, %wide.trip.count
  %indvars.iv.next40 = add nuw nsw i32 %indvars.iv39, 1
  br i1 %exitcond.not, label %.loopexit.us, label %9, !llvm.loop !64

.loopexit.us:                                     ; preds = %15, %.lr.ph29.us, %.preheader.us
  tail call void @cuddHashTableQuit(ptr noundef %8) #19
  %22 = load i32, ptr %6, align 8, !tbaa !3
  %23 = icmp eq i32 %22, 1
  br i1 %23, label %.lr.ph.us, label %.split31.us, !llvm.loop !65

.lr.ph29.us:                                      ; preds = %.lr.ph29.us.preheader, %.lr.ph29.us
  %indvars.iv36 = phi i64 [ 0, %.lr.ph29.us.preheader ], [ %indvars.iv.next37, %.lr.ph29.us ]
  %24 = getelementptr inbounds nuw ptr, ptr %2, i64 %indvars.iv36
  %25 = load ptr, ptr %24, align 8, !tbaa !25
  tail call void @Cudd_RecursiveDeref(ptr noundef %0, ptr noundef %25) #19
  %indvars.iv.next37 = add nuw nsw i64 %indvars.iv36, 1
  %exitcond43.not = icmp eq i64 %indvars.iv.next37, %wide.trip.count42
  br i1 %exitcond43.not, label %.loopexit.us, label %.lr.ph29.us, !llvm.loop !66

.preheader.us:                                    ; preds = %9
  %.not = icmp eq i64 %indvars.iv, 0
  br i1 %.not, label %.loopexit.us, label %.lr.ph29.us.preheader

.lr.ph29.us.preheader:                            ; preds = %.preheader.us
  %wide.trip.count42 = zext nneg i32 %indvars.iv39 to i64
  br label %.lr.ph29.us

.loopexit25:                                      ; preds = %5, %.loopexit25
  store i32 0, ptr %6, align 8, !tbaa !3
  %26 = tail call ptr @cuddHashTableInit(ptr noundef %0, i32 noundef 1, i32 noundef 2) #19
  tail call void @cuddHashTableQuit(ptr noundef %26) #19
  %27 = load i32, ptr %6, align 8, !tbaa !3
  %28 = icmp eq i32 %27, 1
  br i1 %28, label %.loopexit25, label %.split31.us, !llvm.loop !65

.split31.us:                                      ; preds = %.loopexit25, %.loopexit.us
  ret void
}